; ModuleID = '52/319.c'
source_filename = "52/319.c"
target datalayout = "e-m:e-p270:32:32-p271:32:32-p272:64:64-i64:64-f80:128-n8:16:32:64-S128"
target triple = "x86_64-pc-linux-gnu"

@.str = private unnamed_addr constant [5 x i8] c"%d%d\00", align 1
@.str.1 = private unnamed_addr constant [3 x i8] c"%d\00", align 1
@.str.2 = private unnamed_addr constant [4 x i8] c"%d \00", align 1

; Function Attrs: noinline nounwind uwtable
define dso_local i32 @main() #0 {
  %1 = alloca i32, align 4
  %2 = alloca i32, align 4
  %3 = alloca i32, align 4
  %4 = alloca [200 x i32], align 16
  %5 = alloca i32, align 4
  %6 = alloca i32, align 4
  store i32 0, i32* %1, align 4
  %7 = call i32 (i8*, ...) @__isoc99_scanf(i8* getelementptr inbounds ([5 x i8], [5 x i8]* @.str, i64 0, i64 0), i32* %2, i32* %3)
  store i32 0, i32* %5, align 4
  br label %8

8:                                                ; preds = %17, %0
  %9 = load i32, i32* %5, align 4
  %10 = load i32, i32* %2, align 4
  %11 = icmp slt i32 %9, %10
  br i1 %11, label %12, label %20

12:                                               ; preds = %8
  %13 = load i32, i32* %5, align 4
  %14 = sext i32 %13 to i64
  %15 = getelementptr inbounds [200 x i32], [200 x i32]* %4, i64 0, i64 %14
  %16 = call i32 (i8*, ...) @__isoc99_scanf(i8* getelementptr inbounds ([3 x i8], [3 x i8]* @.str.1, i64 0, i64 0), i32* %15)
  br label %17

17:                                               ; preds = %12
  %18 = load i32, i32* %5, align 4
  %19 = add nsw i32 %18, 1
  store i32 %19, i32* %5, align 4
  br label %8

20:                                               ; preds = %8
  store i32 100, i32* %6, align 4
  %21 = load i32, i32* %2, align 4
  %22 = load i32, i32* %3, align 4
  %23 = sub nsw i32 %21, %22
  store i32 %23, i32* %5, align 4
  br label %24

24:                                               ; preds = %38, %20
  %25 = load i32, i32* %5, align 4
  %26 = load i32, i32* %2, align 4
  %27 = icmp slt i32 %25, %26
  br i1 %27, label %28, label %41

28:                                               ; preds = %24
  %29 = load i32, i32* %5, align 4
  %30 = sext i32 %29 to i64
  %31 = getelementptr inbounds [200 x i32], [200 x i32]* %4, i64 0, i64 %30
  %32 = load i32, i32* %31, align 4
  %33 = load i32, i32* %6, align 4
  %34 = sext i32 %33 to i64
  %35 = getelementptr inbounds [200 x i32], [200 x i32]* %4, i64 0, i64 %34
  store i32 %32, i32* %35, align 4
  %36 = load i32, i32* %6, align 4
  %37 = add nsw i32 %36, 1
  store i32 %37, i32* %6, align 4
  br label %38

38:                                               ; preds = %28
  %39 = load i32, i32* %5, align 4
  %40 = add nsw i32 %39, 1
  store i32 %40, i32* %5, align 4
  br label %24

41:                                               ; preds = %24
  %42 = load i32, i32* %3, align 4
  %43 = add nsw i32 100, %42
  store i32 %43, i32* %6, align 4
  store i32 0, i32* %5, align 4
  br label %44

44:                                               ; preds = %60, %41
  %45 = load i32, i32* %5, align 4
  %46 = load i32, i32* %2, align 4
  %47 = load i32, i32* %3, align 4
  %48 = sub nsw i32 %46, %47
  %49 = icmp slt i32 %45, %48
  br i1 %49, label %50, label %63

50:                                               ; preds = %44
  %51 = load i32, i32* %5, align 4
  %52 = sext i32 %51 to i64
  %53 = getelementptr inbounds [200 x i32], [200 x i32]* %4, i64 0, i64 %52
  %54 = load i32, i32* %53, align 4
  %55 = load i32, i32* %6, align 4
  %56 = sext i32 %55 to i64
  %57 = getelementptr inbounds [200 x i32], [200 x i32]* %4, i64 0, i64 %56
  store i32 %54, i32* %57, align 4
  %58 = load i32, i32* %6, align 4
  %59 = add nsw i32 %58, 1
  store i32 %59, i32* %6, align 4
  br label %60

60:                                               ; preds = %50
  %61 = load i32, i32* %5, align 4
  %62 = add nsw i32 %61, 1
  store i32 %62, i32* %5, align 4
  br label %44

63:                                               ; preds = %44
  store i32 100, i32* %6, align 4
  br label %64

64:                                               ; preds = %87, %63
  %65 = load i32, i32* %6, align 4
  %66 = load i32, i32* %2, align 4
  %67 = add nsw i32 100, %66
  %68 = icmp slt i32 %65, %67
  br i1 %68, label %69, label %90

69:                                               ; preds = %64
  %70 = load i32, i32* %6, align 4
  %71 = load i32, i32* %2, align 4
  %72 = add nsw i32 99, %71
  %73 = icmp slt i32 %70, %72
  br i1 %73, label %74, label %80

74:                                               ; preds = %69
  %75 = load i32, i32* %6, align 4
  %76 = sext i32 %75 to i64
  %77 = getelementptr inbounds [200 x i32], [200 x i32]* %4, i64 0, i64 %76
  %78 = load i32, i32* %77, align 4
  %79 = call i32 (i8*, ...) @printf(i8* getelementptr inbounds ([4 x i8], [4 x i8]* @.str.2, i64 0, i64 0), i32 %78)
  br label %86

80:                                               ; preds = %69
  %81 = load i32, i32* %6, align 4
  %82 = sext i32 %81 to i64
  %83 = getelementptr inbounds [200 x i32], [200 x i32]* %4, i64 0, i64 %82
  %84 = load i32, i32* %83, align 4
  %85 = call i32 (i8*, ...) @printf(i8* getelementptr inbounds ([3 x i8], [3 x i8]* @.str.1, i64 0, i64 0), i32 %84)
  br label %86

86:                                               ; preds = %80, %74
  br label %87

87:                                               ; preds = %86
  %88 = load i32, i32* %6, align 4
  %89 = add nsw i32 %88, 1
  store i32 %89, i32* %6, align 4
  br label %64

90:                                               ; preds = %64
  ret i32 0
}

declare dso_local i32 @__isoc99_scanf(i8*, ...) #1

declare dso_local i32 @printf(i8*, ...) #1


!llvm.module.flags = !{!0}
!llvm.ident = !{!1}

!0 = !{i32 1, !"wchar_size", i32 4}
!1 = !{!"clang version 10.0.0-4ubuntu1 "}
