; ModuleID = 'source-C-CXX/51/319.c'
source_filename = "source-C-CXX/51/319.c"
target datalayout = "e-m:e-p270:32:32-p271:32:32-p272:64:64-i64:64-f80:128-n8:16:32:64-S128"
target triple = "x86_64-pc-linux-gnu"

@.str = private unnamed_addr constant [5 x i8] c"%d%d\00", align 1
@.str.1 = private unnamed_addr constant [3 x i8] c"%d\00", align 1
@.str.2 = private unnamed_addr constant [4 x i8] c"%d \00", align 1

; Function Attrs: nofree nounwind sspstrong uwtable
define dso_local i32 @main() local_unnamed_addr #0 {
  %1 = alloca i32, align 4
  %2 = alloca i32, align 4
  %3 = alloca [200 x i32], align 16
  %4 = bitcast i32* %1 to i8*
  call void @llvm.lifetime.start.p0i8(i64 4, i8* nonnull %4) #4
  %5 = bitcast i32* %2 to i8*
  call void @llvm.lifetime.start.p0i8(i64 4, i8* nonnull %5) #4
  %6 = bitcast [200 x i32]* %3 to i8*
  call void @llvm.lifetime.start.p0i8(i64 800, i8* nonnull %6) #4
  %7 = call i32 (i8*, ...) @__isoc99_scanf(i8* getelementptr inbounds ([5 x i8], [5 x i8]* @.str, i64 0, i64 0), i32* nonnull %1, i32* nonnull %2)
  %8 = load i32, i32* %1, align 4, !tbaa !5
  %9 = icmp sgt i32 %8, 0
  br i1 %9, label %10, label %18

10:                                               ; preds = %0, %10
  %11 = phi i64 [ %14, %10 ], [ 0, %0 ]
  %12 = getelementptr inbounds [200 x i32], [200 x i32]* %3, i64 0, i64 %11
  %13 = call i32 (i8*, ...) @__isoc99_scanf(i8* getelementptr inbounds ([3 x i8], [3 x i8]* @.str.1, i64 0, i64 0), i32* nonnull %12)
  %14 = add nuw nsw i64 %11, 1
  %15 = load i32, i32* %1, align 4, !tbaa !5
  %16 = sext i32 %15 to i64
  %17 = icmp slt i64 %14, %16
  br i1 %17, label %10, label %18, !llvm.loop !9

18:                                               ; preds = %10, %0
  %19 = phi i32 [ %8, %0 ], [ %15, %10 ]
  %20 = load i32, i32* %2, align 4, !tbaa !5
  %21 = sub i32 %19, %20
  %22 = icmp sgt i32 %20, 0
  br i1 %22, label %23, label %114

23:                                               ; preds = %18
  %24 = sext i32 %21 to i64
  %25 = sext i32 %19 to i64
  %26 = add nsw i64 %24, 1
  %27 = call i64 @llvm.smax.i64(i64 %26, i64 %25)
  %28 = sub i64 %27, %24
  %29 = icmp ult i64 %28, 8
  br i1 %29, label %102, label %30

30:                                               ; preds = %23
  %31 = getelementptr inbounds [200 x i32], [200 x i32]* %3, i64 0, i64 100
  %32 = add nsw i64 %24, 1
  %33 = call i64 @llvm.smax.i64(i64 %32, i64 %25)
  %34 = add i64 %33, 100
  %35 = sub i64 %34, %24
  %36 = getelementptr [200 x i32], [200 x i32]* %3, i64 0, i64 %35
  %37 = getelementptr [200 x i32], [200 x i32]* %3, i64 0, i64 %24
  %38 = getelementptr [200 x i32], [200 x i32]* %3, i64 0, i64 %33
  %39 = icmp ult i32* %31, %38
  %40 = icmp ult i32* %37, %36
  %41 = and i1 %39, %40
  br i1 %41, label %102, label %42

42:                                               ; preds = %30
  %43 = and i64 %28, -8
  %44 = add i64 %43, %24
  %45 = add i64 %43, 100
  %46 = add i64 %43, -8
  %47 = lshr exact i64 %46, 3
  %48 = add nuw nsw i64 %47, 1
  %49 = and i64 %48, 1
  %50 = icmp eq i64 %46, 0
  br i1 %50, label %84, label %51

51:                                               ; preds = %42
  %52 = and i64 %48, 4611686018427387902
  br label %53

53:                                               ; preds = %53, %51
  %54 = phi i64 [ 0, %51 ], [ %81, %53 ]
  %55 = phi i64 [ %52, %51 ], [ %82, %53 ]
  %56 = add i64 %54, %24
  %57 = add i64 %54, 100
  %58 = getelementptr inbounds [200 x i32], [200 x i32]* %3, i64 0, i64 %56
  %59 = bitcast i32* %58 to <4 x i32>*
  %60 = load <4 x i32>, <4 x i32>* %59, align 4, !tbaa !5, !alias.scope !11
  %61 = getelementptr inbounds i32, i32* %58, i64 4
  %62 = bitcast i32* %61 to <4 x i32>*
  %63 = load <4 x i32>, <4 x i32>* %62, align 4, !tbaa !5, !alias.scope !11
  %64 = getelementptr inbounds [200 x i32], [200 x i32]* %3, i64 0, i64 %57
  %65 = bitcast i32* %64 to <4 x i32>*
  store <4 x i32> %60, <4 x i32>* %65, align 16, !tbaa !5, !alias.scope !14, !noalias !11
  %66 = getelementptr inbounds i32, i32* %64, i64 4
  %67 = bitcast i32* %66 to <4 x i32>*
  store <4 x i32> %63, <4 x i32>* %67, align 16, !tbaa !5, !alias.scope !14, !noalias !11
  %68 = or i64 %54, 8
  %69 = add i64 %68, %24
  %70 = add i64 %54, 108
  %71 = getelementptr inbounds [200 x i32], [200 x i32]* %3, i64 0, i64 %69
  %72 = bitcast i32* %71 to <4 x i32>*
  %73 = load <4 x i32>, <4 x i32>* %72, align 4, !tbaa !5, !alias.scope !11
  %74 = getelementptr inbounds i32, i32* %71, i64 4
  %75 = bitcast i32* %74 to <4 x i32>*
  %76 = load <4 x i32>, <4 x i32>* %75, align 4, !tbaa !5, !alias.scope !11
  %77 = getelementptr inbounds [200 x i32], [200 x i32]* %3, i64 0, i64 %70
  %78 = bitcast i32* %77 to <4 x i32>*
  store <4 x i32> %73, <4 x i32>* %78, align 16, !tbaa !5, !alias.scope !14, !noalias !11
  %79 = getelementptr inbounds i32, i32* %77, i64 4
  %80 = bitcast i32* %79 to <4 x i32>*
  store <4 x i32> %76, <4 x i32>* %80, align 16, !tbaa !5, !alias.scope !14, !noalias !11
  %81 = add nuw i64 %54, 16
  %82 = add i64 %55, -2
  %83 = icmp eq i64 %82, 0
  br i1 %83, label %84, label %53, !llvm.loop !16

84:                                               ; preds = %53, %42
  %85 = phi i64 [ 0, %42 ], [ %81, %53 ]
  %86 = icmp eq i64 %49, 0
  br i1 %86, label %100, label %87

87:                                               ; preds = %84
  %88 = add i64 %85, %24
  %89 = add i64 %85, 100
  %90 = getelementptr inbounds [200 x i32], [200 x i32]* %3, i64 0, i64 %88
  %91 = bitcast i32* %90 to <4 x i32>*
  %92 = load <4 x i32>, <4 x i32>* %91, align 4, !tbaa !5, !alias.scope !11
  %93 = getelementptr inbounds i32, i32* %90, i64 4
  %94 = bitcast i32* %93 to <4 x i32>*
  %95 = load <4 x i32>, <4 x i32>* %94, align 4, !tbaa !5, !alias.scope !11
  %96 = getelementptr inbounds [200 x i32], [200 x i32]* %3, i64 0, i64 %89
  %97 = bitcast i32* %96 to <4 x i32>*
  store <4 x i32> %92, <4 x i32>* %97, align 16, !tbaa !5, !alias.scope !14, !noalias !11
  %98 = getelementptr inbounds i32, i32* %96, i64 4
  %99 = bitcast i32* %98 to <4 x i32>*
  store <4 x i32> %95, <4 x i32>* %99, align 16, !tbaa !5, !alias.scope !14, !noalias !11
  br label %100

100:                                              ; preds = %84, %87
  %101 = icmp eq i64 %28, %43
  br i1 %101, label %114, label %102

102:                                              ; preds = %30, %23, %100
  %103 = phi i64 [ %24, %30 ], [ %24, %23 ], [ %44, %100 ]
  %104 = phi i64 [ 100, %30 ], [ 100, %23 ], [ %45, %100 ]
  br label %105

105:                                              ; preds = %102, %105
  %106 = phi i64 [ %112, %105 ], [ %103, %102 ]
  %107 = phi i64 [ %111, %105 ], [ %104, %102 ]
  %108 = getelementptr inbounds [200 x i32], [200 x i32]* %3, i64 0, i64 %106
  %109 = load i32, i32* %108, align 4, !tbaa !5
  %110 = getelementptr inbounds [200 x i32], [200 x i32]* %3, i64 0, i64 %107
  store i32 %109, i32* %110, align 4, !tbaa !5
  %111 = add nuw nsw i64 %107, 1
  %112 = add nsw i64 %106, 1
  %113 = icmp slt i64 %112, %25
  br i1 %113, label %105, label %114, !llvm.loop !18

114:                                              ; preds = %105, %100, %18
  %115 = icmp sgt i32 %21, 0
  br i1 %115, label %116, label %237

116:                                              ; preds = %114
  %117 = add i32 %20, 100
  %118 = sext i32 %117 to i64
  %119 = zext i32 %21 to i64
  %120 = icmp ult i32 %21, 8
  br i1 %120, label %215, label %121

121:                                              ; preds = %116
  %122 = getelementptr [200 x i32], [200 x i32]* %3, i64 0, i64 %118
  %123 = add nsw i64 %118, %119
  %124 = getelementptr [200 x i32], [200 x i32]* %3, i64 0, i64 %123
  %125 = getelementptr [200 x i32], [200 x i32]* %3, i64 0, i64 %119
  %126 = icmp ult i32* %122, %125
  %127 = bitcast i32* %124 to [200 x i32]*
  %128 = icmp ult [200 x i32]* %3, %127
  %129 = and i1 %126, %128
  br i1 %129, label %215, label %130

130:                                              ; preds = %121
  %131 = and i64 %119, 4294967288
  %132 = add nsw i64 %131, %118
  %133 = add nsw i64 %131, -8
  %134 = lshr exact i64 %133, 3
  %135 = add nuw nsw i64 %134, 1
  %136 = and i64 %135, 3
  %137 = icmp ult i64 %133, 24
  br i1 %137, label %193, label %138

138:                                              ; preds = %130
  %139 = and i64 %135, 4611686018427387900
  br label %140

140:                                              ; preds = %140, %138
  %141 = phi i64 [ 0, %138 ], [ %190, %140 ]
  %142 = phi i64 [ %139, %138 ], [ %191, %140 ]
  %143 = add i64 %141, %118
  %144 = getelementptr inbounds [200 x i32], [200 x i32]* %3, i64 0, i64 %141
  %145 = bitcast i32* %144 to <4 x i32>*
  %146 = load <4 x i32>, <4 x i32>* %145, align 16, !tbaa !5, !alias.scope !19
  %147 = getelementptr inbounds i32, i32* %144, i64 4
  %148 = bitcast i32* %147 to <4 x i32>*
  %149 = load <4 x i32>, <4 x i32>* %148, align 16, !tbaa !5, !alias.scope !19
  %150 = getelementptr inbounds [200 x i32], [200 x i32]* %3, i64 0, i64 %143
  %151 = bitcast i32* %150 to <4 x i32>*
  store <4 x i32> %146, <4 x i32>* %151, align 4, !tbaa !5, !alias.scope !22, !noalias !19
  %152 = getelementptr inbounds i32, i32* %150, i64 4
  %153 = bitcast i32* %152 to <4 x i32>*
  store <4 x i32> %149, <4 x i32>* %153, align 4, !tbaa !5, !alias.scope !22, !noalias !19
  %154 = or i64 %141, 8
  %155 = add i64 %154, %118
  %156 = getelementptr inbounds [200 x i32], [200 x i32]* %3, i64 0, i64 %154
  %157 = bitcast i32* %156 to <4 x i32>*
  %158 = load <4 x i32>, <4 x i32>* %157, align 16, !tbaa !5, !alias.scope !19
  %159 = getelementptr inbounds i32, i32* %156, i64 4
  %160 = bitcast i32* %159 to <4 x i32>*
  %161 = load <4 x i32>, <4 x i32>* %160, align 16, !tbaa !5, !alias.scope !19
  %162 = getelementptr inbounds [200 x i32], [200 x i32]* %3, i64 0, i64 %155
  %163 = bitcast i32* %162 to <4 x i32>*
  store <4 x i32> %158, <4 x i32>* %163, align 4, !tbaa !5, !alias.scope !22, !noalias !19
  %164 = getelementptr inbounds i32, i32* %162, i64 4
  %165 = bitcast i32* %164 to <4 x i32>*
  store <4 x i32> %161, <4 x i32>* %165, align 4, !tbaa !5, !alias.scope !22, !noalias !19
  %166 = or i64 %141, 16
  %167 = add i64 %166, %118
  %168 = getelementptr inbounds [200 x i32], [200 x i32]* %3, i64 0, i64 %166
  %169 = bitcast i32* %168 to <4 x i32>*
  %170 = load <4 x i32>, <4 x i32>* %169, align 16, !tbaa !5, !alias.scope !19
  %171 = getelementptr inbounds i32, i32* %168, i64 4
  %172 = bitcast i32* %171 to <4 x i32>*
  %173 = load <4 x i32>, <4 x i32>* %172, align 16, !tbaa !5, !alias.scope !19
  %174 = getelementptr inbounds [200 x i32], [200 x i32]* %3, i64 0, i64 %167
  %175 = bitcast i32* %174 to <4 x i32>*
  store <4 x i32> %170, <4 x i32>* %175, align 4, !tbaa !5, !alias.scope !22, !noalias !19
  %176 = getelementptr inbounds i32, i32* %174, i64 4
  %177 = bitcast i32* %176 to <4 x i32>*
  store <4 x i32> %173, <4 x i32>* %177, align 4, !tbaa !5, !alias.scope !22, !noalias !19
  %178 = or i64 %141, 24
  %179 = add i64 %178, %118
  %180 = getelementptr inbounds [200 x i32], [200 x i32]* %3, i64 0, i64 %178
  %181 = bitcast i32* %180 to <4 x i32>*
  %182 = load <4 x i32>, <4 x i32>* %181, align 16, !tbaa !5, !alias.scope !19
  %183 = getelementptr inbounds i32, i32* %180, i64 4
  %184 = bitcast i32* %183 to <4 x i32>*
  %185 = load <4 x i32>, <4 x i32>* %184, align 16, !tbaa !5, !alias.scope !19
  %186 = getelementptr inbounds [200 x i32], [200 x i32]* %3, i64 0, i64 %179
  %187 = bitcast i32* %186 to <4 x i32>*
  store <4 x i32> %182, <4 x i32>* %187, align 4, !tbaa !5, !alias.scope !22, !noalias !19
  %188 = getelementptr inbounds i32, i32* %186, i64 4
  %189 = bitcast i32* %188 to <4 x i32>*
  store <4 x i32> %185, <4 x i32>* %189, align 4, !tbaa !5, !alias.scope !22, !noalias !19
  %190 = add nuw i64 %141, 32
  %191 = add i64 %142, -4
  %192 = icmp eq i64 %191, 0
  br i1 %192, label %193, label %140, !llvm.loop !24

193:                                              ; preds = %140, %130
  %194 = phi i64 [ 0, %130 ], [ %190, %140 ]
  %195 = icmp eq i64 %136, 0
  br i1 %195, label %213, label %196

196:                                              ; preds = %193, %196
  %197 = phi i64 [ %210, %196 ], [ %194, %193 ]
  %198 = phi i64 [ %211, %196 ], [ %136, %193 ]
  %199 = add i64 %197, %118
  %200 = getelementptr inbounds [200 x i32], [200 x i32]* %3, i64 0, i64 %197
  %201 = bitcast i32* %200 to <4 x i32>*
  %202 = load <4 x i32>, <4 x i32>* %201, align 16, !tbaa !5, !alias.scope !19
  %203 = getelementptr inbounds i32, i32* %200, i64 4
  %204 = bitcast i32* %203 to <4 x i32>*
  %205 = load <4 x i32>, <4 x i32>* %204, align 16, !tbaa !5, !alias.scope !19
  %206 = getelementptr inbounds [200 x i32], [200 x i32]* %3, i64 0, i64 %199
  %207 = bitcast i32* %206 to <4 x i32>*
  store <4 x i32> %202, <4 x i32>* %207, align 4, !tbaa !5, !alias.scope !22, !noalias !19
  %208 = getelementptr inbounds i32, i32* %206, i64 4
  %209 = bitcast i32* %208 to <4 x i32>*
  store <4 x i32> %205, <4 x i32>* %209, align 4, !tbaa !5, !alias.scope !22, !noalias !19
  %210 = add nuw i64 %197, 8
  %211 = add i64 %198, -1
  %212 = icmp eq i64 %211, 0
  br i1 %212, label %213, label %196, !llvm.loop !25

213:                                              ; preds = %196, %193
  %214 = icmp eq i64 %131, %119
  br i1 %214, label %237, label %215

215:                                              ; preds = %121, %116, %213
  %216 = phi i64 [ 0, %121 ], [ 0, %116 ], [ %131, %213 ]
  %217 = phi i64 [ %118, %121 ], [ %118, %116 ], [ %132, %213 ]
  %218 = xor i64 %216, -1
  %219 = add nsw i64 %218, %119
  %220 = and i64 %119, 3
  %221 = icmp eq i64 %220, 0
  br i1 %221, label %233, label %222

222:                                              ; preds = %215, %222
  %223 = phi i64 [ %230, %222 ], [ %216, %215 ]
  %224 = phi i64 [ %229, %222 ], [ %217, %215 ]
  %225 = phi i64 [ %231, %222 ], [ %220, %215 ]
  %226 = getelementptr inbounds [200 x i32], [200 x i32]* %3, i64 0, i64 %223
  %227 = load i32, i32* %226, align 4, !tbaa !5
  %228 = getelementptr inbounds [200 x i32], [200 x i32]* %3, i64 0, i64 %224
  store i32 %227, i32* %228, align 4, !tbaa !5
  %229 = add nsw i64 %224, 1
  %230 = add nuw nsw i64 %223, 1
  %231 = add i64 %225, -1
  %232 = icmp eq i64 %231, 0
  br i1 %232, label %233, label %222, !llvm.loop !27

233:                                              ; preds = %222, %215
  %234 = phi i64 [ %216, %215 ], [ %230, %222 ]
  %235 = phi i64 [ %217, %215 ], [ %229, %222 ]
  %236 = icmp ult i64 %219, 3
  br i1 %236, label %237, label %239

237:                                              ; preds = %233, %239, %213, %114
  %238 = icmp sgt i32 %19, 0
  br i1 %238, label %263, label %278

239:                                              ; preds = %233, %239
  %240 = phi i64 [ %261, %239 ], [ %234, %233 ]
  %241 = phi i64 [ %260, %239 ], [ %235, %233 ]
  %242 = getelementptr inbounds [200 x i32], [200 x i32]* %3, i64 0, i64 %240
  %243 = load i32, i32* %242, align 4, !tbaa !5
  %244 = getelementptr inbounds [200 x i32], [200 x i32]* %3, i64 0, i64 %241
  store i32 %243, i32* %244, align 4, !tbaa !5
  %245 = add nsw i64 %241, 1
  %246 = add nuw nsw i64 %240, 1
  %247 = getelementptr inbounds [200 x i32], [200 x i32]* %3, i64 0, i64 %246
  %248 = load i32, i32* %247, align 4, !tbaa !5
  %249 = getelementptr inbounds [200 x i32], [200 x i32]* %3, i64 0, i64 %245
  store i32 %248, i32* %249, align 4, !tbaa !5
  %250 = add nsw i64 %241, 2
  %251 = add nuw nsw i64 %240, 2
  %252 = getelementptr inbounds [200 x i32], [200 x i32]* %3, i64 0, i64 %251
  %253 = load i32, i32* %252, align 4, !tbaa !5
  %254 = getelementptr inbounds [200 x i32], [200 x i32]* %3, i64 0, i64 %250
  store i32 %253, i32* %254, align 4, !tbaa !5
  %255 = add nsw i64 %241, 3
  %256 = add nuw nsw i64 %240, 3
  %257 = getelementptr inbounds [200 x i32], [200 x i32]* %3, i64 0, i64 %256
  %258 = load i32, i32* %257, align 4, !tbaa !5
  %259 = getelementptr inbounds [200 x i32], [200 x i32]* %3, i64 0, i64 %255
  store i32 %258, i32* %259, align 4, !tbaa !5
  %260 = add nsw i64 %241, 4
  %261 = add nuw nsw i64 %240, 4
  %262 = icmp eq i64 %261, %119
  br i1 %262, label %237, label %239, !llvm.loop !28

263:                                              ; preds = %237, %263
  %264 = phi i64 [ %273, %263 ], [ 100, %237 ]
  %265 = phi i32 [ %274, %263 ], [ %19, %237 ]
  %266 = add nsw i32 %265, 99
  %267 = sext i32 %266 to i64
  %268 = icmp slt i64 %264, %267
  %269 = getelementptr inbounds [200 x i32], [200 x i32]* %3, i64 0, i64 %264
  %270 = load i32, i32* %269, align 4, !tbaa !5
  %271 = select i1 %268, i8* getelementptr inbounds ([4 x i8], [4 x i8]* @.str.2, i64 0, i64 0), i8* getelementptr inbounds ([3 x i8], [3 x i8]* @.str.1, i64 0, i64 0)
  %272 = call i32 (i8*, ...) @printf(i8* nonnull dereferenceable(1) %271, i32 %270)
  %273 = add nuw nsw i64 %264, 1
  %274 = load i32, i32* %1, align 4, !tbaa !5
  %275 = add nsw i32 %274, 99
  %276 = sext i32 %275 to i64
  %277 = icmp slt i64 %264, %276
  br i1 %277, label %263, label %278, !llvm.loop !29

278:                                              ; preds = %263, %237
  call void @llvm.lifetime.end.p0i8(i64 800, i8* nonnull %6) #4
  call void @llvm.lifetime.end.p0i8(i64 4, i8* nonnull %5) #4
  call void @llvm.lifetime.end.p0i8(i64 4, i8* nonnull %4) #4
  ret i32 0
}

; Function Attrs: argmemonly mustprogress nofree nosync nounwind willreturn
declare void @llvm.lifetime.start.p0i8(i64 immarg, i8* nocapture) #1

; Function Attrs: nofree nounwind
declare noundef i32 @__isoc99_scanf(i8* nocapture noundef readonly, ...) local_unnamed_addr #2

; Function Attrs: nofree nounwind
declare noundef i32 @printf(i8* nocapture noundef readonly, ...) local_unnamed_addr #2

; Function Attrs: argmemonly mustprogress nofree nosync nounwind willreturn
declare void @llvm.lifetime.end.p0i8(i64 immarg, i8* nocapture) #1

; Function Attrs: nofree nosync nounwind readnone speculatable willreturn
declare i64 @llvm.smax.i64(i64, i64) #3


!llvm.module.flags = !{!0, !1, !2, !3}
!llvm.ident = !{!4}

!0 = !{i32 1, !"wchar_size", i32 4}
!1 = !{i32 7, !"PIC Level", i32 2}
!2 = !{i32 7, !"PIE Level", i32 2}
!3 = !{i32 7, !"uwtable", i32 1}
!4 = !{!"clang version 13.0.0"}
!5 = !{!6, !6, i64 0}
!6 = !{!"int", !7, i64 0}
!7 = !{!"omnipotent char", !8, i64 0}
!8 = !{!"Simple C/C++ TBAA"}
!9 = distinct !{!9, !10}
!10 = !{!"llvm.loop.mustprogress"}
!11 = !{!12}
!12 = distinct !{!12, !13}
!13 = distinct !{!13, !"LVerDomain"}
!14 = !{!15}
!15 = distinct !{!15, !13}
!16 = distinct !{!16, !10, !17}
!17 = !{!"llvm.loop.isvectorized", i32 1}
!18 = distinct !{!18, !10, !17}
!19 = !{!20}
!20 = distinct !{!20, !21}
!21 = distinct !{!21, !"LVerDomain"}
!22 = !{!23}
!23 = distinct !{!23, !21}
!24 = distinct !{!24, !10, !17}
!25 = distinct !{!25, !26}
!26 = !{!"llvm.loop.unroll.disable"}
!27 = distinct !{!27, !26}
!28 = distinct !{!28, !10, !17}
!29 = distinct !{!29, !10}
